target datalayout = "e-m:e-p270:32:32-p271:32:32-p272:64:64-i64:64-i128:128-f80:128-n8:16:32:64-S128"
target triple = "x86_64-pc-linux-gnu"

%struct._zend_string = type { %struct._zend_refcounted_h, i64, i64, [1 x i8] }
%struct._zend_refcounted_h = type { i32, %union.anon }
%union.anon = type { i32 }
%struct._zend_execute_data = type { ptr, ptr, ptr, ptr, %struct._zval_struct, ptr, ptr, ptr, ptr }
%struct._zval_struct = type { %union._zend_value, %union.anon.0, %union.anon.3 }
%union._zend_value = type { i64 }
%union.anon.0 = type { i32 }
%union.anon.3 = type { i32 }
%struct.anon.1 = type { i8, i8, %union.anon.2 }
%union.anon.2 = type { i16 }

@zend_empty_string = external global ptr, align 8

; Function Attrs: alwaysinline nounwind uwtable
define internal zeroext i8 @zval_get_type(ptr noundef %0) #2 {
  %2 = alloca ptr, align 8
  store ptr %0, ptr %2, align 8, !tbaa !30
  %3 = load ptr, ptr %2, align 8, !tbaa !30
  %4 = getelementptr inbounds nuw %struct._zval_struct, ptr %3, i32 0, i32 1
  %5 = getelementptr inbounds nuw %struct.anon.1, ptr %4, i32 0, i32 0
  %6 = load i8, ptr %5, align 8, !tbaa !13
  ret i8 %6
}

; Function Attrs: alwaysinline nounwind uwtable
define internal zeroext i1 @zend_parse_arg_str_ex(ptr noundef %0, ptr noundef %1, i1 noundef zeroext %2, i32 noundef %3, i1 noundef zeroext %4) #2 {
  %6 = alloca i1, align 1
  %7 = alloca ptr, align 8
  %8 = alloca ptr, align 8
  %9 = alloca i8, align 1
  %10 = alloca i32, align 4
  %11 = alloca i8, align 1
  store ptr %0, ptr %7, align 8, !tbaa !30
  store ptr %1, ptr %8, align 8, !tbaa !32
  %12 = zext i1 %2 to i8
  store i8 %12, ptr %9, align 1, !tbaa !19
  store i32 %3, ptr %10, align 4, !tbaa !11
  %13 = zext i1 %4 to i8
  store i8 %13, ptr %11, align 1, !tbaa !19
  %14 = load ptr, ptr %7, align 8, !tbaa !30
  %15 = call zeroext i8 @zval_get_type(ptr noundef %14)
  %16 = zext i8 %15 to i32
  %17 = icmp eq i32 %16, 6
  %18 = xor i1 %17, true
  %19 = xor i1 %18, true
  %20 = zext i1 %19 to i32
  %21 = sext i32 %20 to i64
  %22 = call i64 @llvm.expect.i64(i64 %21, i64 1)
  %23 = icmp ne i64 %22, 0
  br i1 %23, label %24, label %29

24:                                               ; preds = %5
  %25 = load ptr, ptr %7, align 8, !tbaa !30
  %26 = getelementptr inbounds nuw %struct._zval_struct, ptr %25, i32 0, i32 0
  %27 = load ptr, ptr %26, align 8, !tbaa !13
  %28 = load ptr, ptr %8, align 8, !tbaa !32
  store ptr %27, ptr %28, align 8, !tbaa !14
  br label %53

29:                                               ; preds = %5
  %30 = load i8, ptr %9, align 1, !tbaa !19, !range !21, !noundef !22
  %31 = trunc i8 %30 to i1
  br i1 %31, label %32, label %39

32:                                               ; preds = %29
  %33 = load ptr, ptr %7, align 8, !tbaa !30
  %34 = call zeroext i8 @zval_get_type(ptr noundef %33)
  %35 = zext i8 %34 to i32
  %36 = icmp eq i32 %35, 1
  br i1 %36, label %37, label %39

37:                                               ; preds = %32
  %38 = load ptr, ptr %8, align 8, !tbaa !32
  store ptr null, ptr %38, align 8, !tbaa !14
  br label %52

39:                                               ; preds = %32, %29
  %40 = load i8, ptr %11, align 1, !tbaa !19, !range !21, !noundef !22
  %41 = trunc i8 %40 to i1
  br i1 %41, label %42, label %47

42:                                               ; preds = %39
  %43 = load ptr, ptr %7, align 8, !tbaa !30
  %44 = load ptr, ptr %8, align 8, !tbaa !32
  %45 = load i32, ptr %10, align 4, !tbaa !11
  %46 = call zeroext i1 @zend_flf_parse_arg_str_slow(ptr noundef %43, ptr noundef %44, i32 noundef %45)
  store i1 %46, ptr %6, align 1
  br label %54

47:                                               ; preds = %39
  %48 = load ptr, ptr %7, align 8, !tbaa !30
  %49 = load ptr, ptr %8, align 8, !tbaa !32
  %50 = load i32, ptr %10, align 4, !tbaa !11
  %51 = call zeroext i1 @zend_parse_arg_str_slow(ptr noundef %48, ptr noundef %49, i32 noundef %50)
  store i1 %51, ptr %6, align 1
  br label %54

52:                                               ; preds = %37
  br label %53

53:                                               ; preds = %52, %24
  store i1 true, ptr %6, align 1
  br label %54

54:                                               ; preds = %53, %47, %42
  %55 = load i1, ptr %6, align 1
  ret i1 %55
}

; Function Attrs: alwaysinline nounwind uwtable
define internal i32 @zval_gc_flags(i32 noundef %0) #2 {
  %2 = alloca i32, align 4
  store i32 %0, ptr %2, align 4, !tbaa !11
  %3 = load i32, ptr %2, align 4, !tbaa !11
  %4 = lshr i32 %3, 0
  %5 = and i32 %4, 1008
  ret i32 %5
}

; Function Attrs: alwaysinline nounwind uwtable
define internal zeroext i1 @zend_parse_arg_str(ptr noundef %0, ptr noundef %1, i1 noundef zeroext %2, i32 noundef %3) #2 {
  %5 = alloca ptr, align 8
  %6 = alloca ptr, align 8
  %7 = alloca i8, align 1
  %8 = alloca i32, align 4
  store ptr %0, ptr %5, align 8, !tbaa !30
  store ptr %1, ptr %6, align 8, !tbaa !32
  %9 = zext i1 %2 to i8
  store i8 %9, ptr %7, align 1, !tbaa !19
  store i32 %3, ptr %8, align 4, !tbaa !11
  %10 = load ptr, ptr %5, align 8, !tbaa !30
  %11 = load ptr, ptr %6, align 8, !tbaa !32
  %12 = load i8, ptr %7, align 1, !tbaa !19, !range !21, !noundef !22
  %13 = trunc i8 %12 to i1
  %14 = load i32, ptr %8, align 4, !tbaa !11
  %15 = call zeroext i1 @zend_parse_arg_str_ex(ptr noundef %10, ptr noundef %11, i1 noundef zeroext %13, i32 noundef %14, i1 noundef zeroext false)
  ret i1 %15
}

; Function Attrs: nounwind uwtable
define hidden void @zif_quoted_printable_encode(ptr noundef %0, ptr noundef %1) #0 {
  %3 = alloca ptr, align 8
  %4 = alloca ptr, align 8
  %5 = alloca ptr, align 8
  %6 = alloca ptr, align 8
  %7 = alloca i32, align 4
  %8 = alloca i32, align 4
  %9 = alloca i32, align 4
  %10 = alloca i32, align 4
  %11 = alloca i32, align 4
  %12 = alloca ptr, align 8
  %13 = alloca ptr, align 8
  %14 = alloca i32, align 4
  %15 = alloca ptr, align 8
  %16 = alloca i8, align 1
  %17 = alloca i8, align 1
  %18 = alloca i32, align 4
  %19 = alloca i32, align 4
  %20 = alloca ptr, align 8
  %21 = alloca ptr, align 8
  %22 = alloca ptr, align 8
  %23 = alloca ptr, align 8
  store ptr %0, ptr %3, align 8, !tbaa !28
  store ptr %1, ptr %4, align 8, !tbaa !30
  call void @llvm.lifetime.start.p0(i64 8, ptr %5) #11
  call void @llvm.lifetime.start.p0(i64 8, ptr %6) #11
  br label %24

24:                                               ; preds = %2
  call void @llvm.lifetime.start.p0(i64 4, ptr %7) #11
  store i32 0, ptr %7, align 4, !tbaa !11
  call void @llvm.lifetime.start.p0(i64 4, ptr %8) #11
  store i32 1, ptr %8, align 4, !tbaa !11
  call void @llvm.lifetime.start.p0(i64 4, ptr %9) #11
  store i32 1, ptr %9, align 4, !tbaa !11
  call void @llvm.lifetime.start.p0(i64 4, ptr %10) #11
  %25 = load ptr, ptr %3, align 8, !tbaa !28
  %26 = getelementptr inbounds nuw %struct._zend_execute_data, ptr %25, i32 0, i32 4
  %27 = getelementptr inbounds nuw %struct._zval_struct, ptr %26, i32 0, i32 2
  %28 = load i32, ptr %27, align 4, !tbaa !13
  store i32 %28, ptr %10, align 4, !tbaa !11
  call void @llvm.lifetime.start.p0(i64 4, ptr %11) #11
  store i32 0, ptr %11, align 4, !tbaa !11
  call void @llvm.lifetime.start.p0(i64 8, ptr %12) #11
  call void @llvm.lifetime.start.p0(i64 8, ptr %13) #11
  store ptr null, ptr %13, align 8, !tbaa !30
  call void @llvm.lifetime.start.p0(i64 4, ptr %14) #11
  store i32 0, ptr %14, align 4, !tbaa !11
  call void @llvm.lifetime.start.p0(i64 8, ptr %15) #11
  store ptr null, ptr %15, align 8, !tbaa !4
  call void @llvm.lifetime.start.p0(i64 1, ptr %16) #11
  store i8 0, ptr %16, align 1, !tbaa !19
  call void @llvm.lifetime.start.p0(i64 1, ptr %17) #11
  store i8 0, ptr %17, align 1, !tbaa !19
  call void @llvm.lifetime.start.p0(i64 4, ptr %18) #11
  store i32 0, ptr %18, align 4, !tbaa !11
  br label %29

29:                                               ; preds = %24
  %30 = load i32, ptr %10, align 4, !tbaa !11
  %31 = load i32, ptr %8, align 4, !tbaa !11
  %32 = icmp ult i32 %30, %31
  %33 = xor i1 %32, true
  %34 = xor i1 %33, true
  %35 = zext i1 %34 to i32
  %36 = sext i32 %35 to i64
  %37 = call i64 @llvm.expect.i64(i64 %36, i64 0)
  %38 = icmp ne i64 %37, 0
  br i1 %38, label %49, label %39

39:                                               ; preds = %29
  %40 = load i32, ptr %10, align 4, !tbaa !11
  %41 = load i32, ptr %9, align 4, !tbaa !11
  %42 = icmp ugt i32 %40, %41
  %43 = xor i1 %42, true
  %44 = xor i1 %43, true
  %45 = zext i1 %44 to i32
  %46 = sext i32 %45 to i64
  %47 = call i64 @llvm.expect.i64(i64 %46, i64 0)
  %48 = icmp ne i64 %47, 0
  br i1 %48, label %49, label %52

49:                                               ; preds = %39, %29
  %50 = load i32, ptr %8, align 4, !tbaa !11
  %51 = load i32, ptr %9, align 4, !tbaa !11
  call void @zend_wrong_parameters_count_error(i32 noundef %50, i32 noundef %51)
  store i32 1, ptr %18, align 4, !tbaa !11
  br label %116

52:                                               ; preds = %39
  %53 = load ptr, ptr %3, align 8, !tbaa !28
  %54 = getelementptr inbounds %struct._zval_struct, ptr %53, i64 4
  store ptr %54, ptr %12, align 8, !tbaa !30
  %55 = load i32, ptr %11, align 4, !tbaa !11
  %56 = add i32 %55, 1
  store i32 %56, ptr %11, align 4, !tbaa !11
  %57 = load i32, ptr %11, align 4, !tbaa !11
  %58 = load i32, ptr %8, align 4, !tbaa !11
  %59 = icmp ule i32 %57, %58
  br i1 %59, label %65, label %60

60:                                               ; preds = %52
  %61 = load i8, ptr %17, align 1, !tbaa !19, !range !21, !noundef !22
  %62 = trunc i8 %61 to i1
  %63 = zext i1 %62 to i32
  %64 = icmp eq i32 %63, 1
  br label %65

65:                                               ; preds = %60, %52
  %66 = phi i1 [ true, %52 ], [ %64, %60 ]
  call void @llvm.assume(i1 %66)
  %67 = load i32, ptr %11, align 4, !tbaa !11
  %68 = load i32, ptr %8, align 4, !tbaa !11
  %69 = icmp ugt i32 %67, %68
  br i1 %69, label %75, label %70

70:                                               ; preds = %65
  %71 = load i8, ptr %17, align 1, !tbaa !19, !range !21, !noundef !22
  %72 = trunc i8 %71 to i1
  %73 = zext i1 %72 to i32
  %74 = icmp eq i32 %73, 0
  br label %75

75:                                               ; preds = %70, %65
  %76 = phi i1 [ true, %65 ], [ %74, %70 ]
  call void @llvm.assume(i1 %76)
  %77 = load i8, ptr %17, align 1, !tbaa !19, !range !21, !noundef !22
  %78 = trunc i8 %77 to i1
  br i1 %78, label %79, label %91

79:                                               ; preds = %75
  %80 = load i32, ptr %11, align 4, !tbaa !11
  %81 = load i32, ptr %10, align 4, !tbaa !11
  %82 = icmp ugt i32 %80, %81
  %83 = xor i1 %82, true
  %84 = xor i1 %83, true
  %85 = zext i1 %84 to i32
  %86 = sext i32 %85 to i64
  %87 = call i64 @llvm.expect.i64(i64 %86, i64 0)
  %88 = icmp ne i64 %87, 0
  br i1 %88, label %89, label %90

89:                                               ; preds = %79
  br label %116

90:                                               ; preds = %79
  br label %91

91:                                               ; preds = %90, %75
  %92 = load ptr, ptr %12, align 8, !tbaa !30
  %93 = getelementptr inbounds nuw %struct._zval_struct, ptr %92, i32 1
  store ptr %93, ptr %12, align 8, !tbaa !30
  %94 = load ptr, ptr %12, align 8, !tbaa !30
  store ptr %94, ptr %13, align 8, !tbaa !30
  %95 = load ptr, ptr %13, align 8, !tbaa !30
  %96 = load i32, ptr %11, align 4, !tbaa !11
  %97 = call zeroext i1 @zend_parse_arg_str(ptr noundef %95, ptr noundef %5, i1 noundef zeroext false, i32 noundef %96)
  %98 = xor i1 %97, true
  %99 = xor i1 %98, true
  %100 = xor i1 %99, true
  %101 = zext i1 %100 to i32
  %102 = sext i32 %101 to i64
  %103 = call i64 @llvm.expect.i64(i64 %102, i64 0)
  %104 = icmp ne i64 %103, 0
  br i1 %104, label %105, label %106

105:                                              ; preds = %91
  store i32 4, ptr %14, align 4, !tbaa !11
  store i32 9, ptr %18, align 4, !tbaa !11
  br label %116

106:                                              ; preds = %91
  %107 = load i32, ptr %11, align 4, !tbaa !11
  %108 = load i32, ptr %9, align 4, !tbaa !11
  %109 = icmp eq i32 %107, %108
  br i1 %109, label %113, label %110

110:                                              ; preds = %106
  %111 = load i32, ptr %9, align 4, !tbaa !11
  %112 = icmp eq i32 %111, -1
  br label %113

113:                                              ; preds = %110, %106
  %114 = phi i1 [ true, %106 ], [ %112, %110 ]
  call void @llvm.assume(i1 %114)
  br label %115

115:                                              ; preds = %113
  br label %116

116:                                              ; preds = %115, %105, %89, %49
  %117 = load i32, ptr %18, align 4, !tbaa !11
  %118 = icmp ne i32 %117, 0
  %119 = xor i1 %118, true
  %120 = xor i1 %119, true
  %121 = zext i1 %120 to i32
  %122 = sext i32 %121 to i64
  %123 = call i64 @llvm.expect.i64(i64 %122, i64 0)
  %124 = icmp ne i64 %123, 0
  br i1 %124, label %125, label %131

125:                                              ; preds = %116
  %126 = load i32, ptr %18, align 4, !tbaa !11
  %127 = load i32, ptr %11, align 4, !tbaa !11
  %128 = load ptr, ptr %15, align 8, !tbaa !4
  %129 = load i32, ptr %14, align 4, !tbaa !11
  %130 = load ptr, ptr %13, align 8, !tbaa !30
  call void @zend_wrong_parameter_error(i32 noundef %126, i32 noundef %127, ptr noundef %128, i32 noundef %129, ptr noundef %130)
  store i32 1, ptr %19, align 4
  br label %132

131:                                              ; preds = %116
  store i32 0, ptr %19, align 4
  br label %132

132:                                              ; preds = %131, %125
  call void @llvm.lifetime.end.p0(i64 4, ptr %18) #11
  call void @llvm.lifetime.end.p0(i64 1, ptr %17) #11
  call void @llvm.lifetime.end.p0(i64 1, ptr %16) #11
  call void @llvm.lifetime.end.p0(i64 8, ptr %15) #11
  call void @llvm.lifetime.end.p0(i64 4, ptr %14) #11
  call void @llvm.lifetime.end.p0(i64 8, ptr %13) #11
  call void @llvm.lifetime.end.p0(i64 8, ptr %12) #11
  call void @llvm.lifetime.end.p0(i64 4, ptr %11) #11
  call void @llvm.lifetime.end.p0(i64 4, ptr %10) #11
  call void @llvm.lifetime.end.p0(i64 4, ptr %9) #11
  call void @llvm.lifetime.end.p0(i64 4, ptr %8) #11
  call void @llvm.lifetime.end.p0(i64 4, ptr %7) #11
  %133 = load i32, ptr %19, align 4
  switch i32 %133, label %187 [
    i32 0, label %134
  ]

134:                                              ; preds = %132
  br label %135

135:                                              ; preds = %134
  br label %136

136:                                              ; preds = %135
  %137 = load ptr, ptr %5, align 8, !tbaa !14
  %138 = getelementptr inbounds nuw %struct._zend_string, ptr %137, i32 0, i32 2
  %139 = load i64, ptr %138, align 8, !tbaa !16
  %140 = icmp ne i64 %139, 0
  br i1 %140, label %158, label %141

141:                                              ; preds = %136
  br label %142

142:                                              ; preds = %141
  br label %143

143:                                              ; preds = %142
  br label %144

144:                                              ; preds = %143
  call void @llvm.lifetime.start.p0(i64 8, ptr %20) #11
  %145 = load ptr, ptr %4, align 8, !tbaa !30
  store ptr %145, ptr %20, align 8, !tbaa !30
  call void @llvm.lifetime.start.p0(i64 8, ptr %21) #11
  %146 = load ptr, ptr @zend_empty_string, align 8, !tbaa !14
  store ptr %146, ptr %21, align 8, !tbaa !14
  %147 = load ptr, ptr %21, align 8, !tbaa !14
  %148 = load ptr, ptr %20, align 8, !tbaa !30
  %149 = getelementptr inbounds nuw %struct._zval_struct, ptr %148, i32 0, i32 0
  store ptr %147, ptr %149, align 8, !tbaa !13
  %150 = load ptr, ptr %20, align 8, !tbaa !30
  %151 = getelementptr inbounds nuw %struct._zval_struct, ptr %150, i32 0, i32 1
  store i32 6, ptr %151, align 8, !tbaa !13
  call void @llvm.lifetime.end.p0(i64 8, ptr %21) #11
  call void @llvm.lifetime.end.p0(i64 8, ptr %20) #11
  br label %152

152:                                              ; preds = %144
  br label %153

153:                                              ; preds = %152
  br label %154

154:                                              ; preds = %153
  br label %155

155:                                              ; preds = %154
  store i32 1, ptr %19, align 4
  br label %187

156:                                              ; No predecessors!
  br label %157

157:                                              ; preds = %156
  br label %158

158:                                              ; preds = %157, %136
  %159 = load ptr, ptr %5, align 8, !tbaa !14
  %160 = getelementptr inbounds nuw %struct._zend_string, ptr %159, i32 0, i32 3
  %161 = getelementptr inbounds [1 x i8], ptr %160, i64 0, i64 0
  %162 = load ptr, ptr %5, align 8, !tbaa !14
  %163 = getelementptr inbounds nuw %struct._zend_string, ptr %162, i32 0, i32 2
  %164 = load i64, ptr %163, align 8, !tbaa !16
  %165 = call ptr @php_quot_print_encode(ptr noundef %161, i64 noundef %164)
  store ptr %165, ptr %6, align 8, !tbaa !14
  br label %166

166:                                              ; preds = %158
  br label %167

167:                                              ; preds = %166
  call void @llvm.lifetime.start.p0(i64 8, ptr %22) #11
  %168 = load ptr, ptr %4, align 8, !tbaa !30
  store ptr %168, ptr %22, align 8, !tbaa !30
  call void @llvm.lifetime.start.p0(i64 8, ptr %23) #11
  %169 = load ptr, ptr %6, align 8, !tbaa !14
  store ptr %169, ptr %23, align 8, !tbaa !14
  %170 = load ptr, ptr %23, align 8, !tbaa !14
  %171 = load ptr, ptr %22, align 8, !tbaa !30
  %172 = getelementptr inbounds nuw %struct._zval_struct, ptr %171, i32 0, i32 0
  store ptr %170, ptr %172, align 8, !tbaa !13
  %173 = load ptr, ptr %23, align 8, !tbaa !14
  %174 = getelementptr inbounds nuw %struct._zend_string, ptr %173, i32 0, i32 0
  %175 = getelementptr inbounds nuw %struct._zend_refcounted_h, ptr %174, i32 0, i32 1
  %176 = load i32, ptr %175, align 4, !tbaa !13
  %177 = call i32 @zval_gc_flags(i32 noundef %176)
  %178 = and i32 %177, 64
  %179 = icmp ne i32 %178, 0
  %180 = select i1 %179, i32 6, i32 262
  %181 = load ptr, ptr %22, align 8, !tbaa !30
  %182 = getelementptr inbounds nuw %struct._zval_struct, ptr %181, i32 0, i32 1
  store i32 %180, ptr %182, align 8, !tbaa !13
  call void @llvm.lifetime.end.p0(i64 8, ptr %23) #11
  call void @llvm.lifetime.end.p0(i64 8, ptr %22) #11
  br label %183

183:                                              ; preds = %167
  br label %184

184:                                              ; preds = %183
  store i32 1, ptr %19, align 4
  br label %187

185:                                              ; No predecessors!
  br label %186

186:                                              ; preds = %185
  store i32 0, ptr %19, align 4
  br label %187

187:                                              ; preds = %186, %184, %155, %132
  call void @llvm.lifetime.end.p0(i64 8, ptr %6) #11
  call void @llvm.lifetime.end.p0(i64 8, ptr %5) #11
  %188 = load i32, ptr %19, align 4
  switch i32 %188, label %190 [
    i32 0, label %189
    i32 1, label %189
  ]

189:                                              ; preds = %187, %187
  ret void

190:                                              ; preds = %187
  unreachable
}