; Function Attrs: nounwind uwtable
define hidden void @zif_quoted_printable_encode(ptr noundef %0, ptr noundef writeonly captures(none) %1) local_unnamed_addr #0 {
  %3 = alloca ptr, align 8
  call void @llvm.lifetime.start.p0(i64 8, ptr nonnull %3) #9
  %4 = getelementptr inbounds nuw i8, ptr %0, i64 44
  %5 = load i32, ptr %4, align 4, !tbaa !4
  %cond = icmp eq i32 %5, 1
  br i1 %cond, label %6, label %.thread62, !prof !21

.thread62:                                        ; preds = %2
  tail call void @zend_wrong_parameters_count_error(i32 noundef 1, i32 noundef 1) #9
  br label %13

6:                                                ; preds = %2
  %7 = getelementptr inbounds nuw i8, ptr %0, i64 80
  %8 = getelementptr inbounds nuw i8, ptr %0, i64 88
  %9 = load i8, ptr %8, align 8, !tbaa !4
  %10 = icmp eq i8 %9, 6
  br i1 %10, label %.thread72, label %zend_parse_arg_str_ex.exit, !prof !20

.thread72:                                        ; preds = %6
  %11 = load ptr, ptr %7, align 8, !tbaa !4
  store ptr %11, ptr %3, align 8, !tbaa !22
  br label %.critedge

zend_parse_arg_str_ex.exit:                       ; preds = %6
  %12 = call zeroext i1 @zend_parse_arg_str_slow(ptr noundef nonnull %7, ptr noundef nonnull %3, i32 noundef 1) #9
  %cond.fr52 = freeze i1 %12
  br i1 %cond.fr52, label %zend_parse_arg_str_ex.exit..critedge_crit_edge, label %13, !prof !24

zend_parse_arg_str_ex.exit..critedge_crit_edge:   ; preds = %zend_parse_arg_str_ex.exit
  %.pre = load ptr, ptr %3, align 8, !tbaa !22
  br label %.critedge

13:                                               ; preds = %zend_parse_arg_str_ex.exit, %.thread62
  %.071 = phi i32 [ 0, %.thread62 ], [ 1, %zend_parse_arg_str_ex.exit ]
  %.04170 = phi ptr [ null, %.thread62 ], [ %7, %zend_parse_arg_str_ex.exit ]
  %.04269 = phi i32 [ 0, %.thread62 ], [ 4, %zend_parse_arg_str_ex.exit ]
  %.04468 = phi i32 [ 1, %.thread62 ], [ 9, %zend_parse_arg_str_ex.exit ]
  call void @zend_wrong_parameter_error(i32 noundef %.04468, i32 noundef %.071, ptr noundef null, i32 noundef %.04269, ptr noundef %.04170) #9
  br label %28

.critedge:                                        ; preds = %zend_parse_arg_str_ex.exit..critedge_crit_edge, %.thread72
  %14 = phi ptr [ %.pre, %zend_parse_arg_str_ex.exit..critedge_crit_edge ], [ %11, %.thread72 ]
  %15 = getelementptr inbounds nuw i8, ptr %14, i64 16
  %16 = load i64, ptr %15, align 8, !tbaa !13
  %.not48 = icmp eq i64 %16, 0
  br i1 %.not48, label %17, label %20

17:                                               ; preds = %.critedge
  %18 = load ptr, ptr @zend_empty_string, align 8, !tbaa !22
  store ptr %18, ptr %1, align 8, !tbaa !4
  %19 = getelementptr inbounds nuw i8, ptr %1, i64 8
  store i32 6, ptr %19, align 8, !tbaa !4
  br label %28

20:                                               ; preds = %.critedge
  %21 = getelementptr inbounds nuw i8, ptr %14, i64 24
  %22 = call ptr @php_quot_print_encode(ptr noundef nonnull %21, i64 noundef %16)
  store ptr %22, ptr %1, align 8, !tbaa !4
  %23 = getelementptr inbounds nuw i8, ptr %22, i64 4
  %24 = load i32, ptr %23, align 4, !tbaa !4
  %25 = and i32 %24, 64
  %.not49 = icmp eq i32 %25, 0
  %26 = select i1 %.not49, i32 262, i32 6
  %27 = getelementptr inbounds nuw i8, ptr %1, i64 8
  store i32 %26, ptr %27, align 8, !tbaa !4
  br label %28

28:                                               ; preds = %13, %20, %17
  call void @llvm.lifetime.end.p0(i64 8, ptr nonnull %3) #9
  ret void
}